#include <math.h>
#include <stdio.h>
#include <stdlib.h>
#include <string.h>



int main(int argc, char* argv[])
{
	int k,n,i;
	double *p,a[1000],sum=0,D=0,S,x;
	p=a;
	scanf("%d",&k);
	for(i=0;i<k;i++)
	{sum=0;D=0;
	scanf("%d",&n);
	for(p=a;p<a+n;p++)
	{
	scanf("%lf",p);
	sum=sum+*p;
	}
	x=sum/n;
	for(p=a;p<a+n;p++)
	{D=D+pow((*p-x),2);}
	S=sqrt(D/n);
	printf("%.5f\n",S);
	}


	return 0;
}
